target datalayout = "e-m:e-p270:32:32-p271:32:32-p272:64:64-i64:64-i128:128-f80:128-n8:16:32:64-S128"
target triple = "x86_64-pc-linux-gnu"

%struct.jmmInterface_1_ = type { ptr, ptr, ptr, ptr, ptr, ptr, ptr, ptr, ptr, ptr, ptr, ptr, ptr, ptr, ptr, ptr, ptr, ptr, ptr, ptr, ptr, ptr, ptr, ptr, ptr, ptr, ptr, ptr, ptr, ptr, ptr, ptr, ptr, ptr, ptr, ptr, ptr, ptr, ptr, ptr, ptr }

@.str = private unnamed_addr constant [31 x i8] c"Invalid GarbageCollectorMXBean\00", align 1
@jmm_interface_management_ext = external global ptr, align 8

; Function Attrs: nounwind uwtable
define i32 @Java_com_sun_management_internal_GcInfoBuilder_getNumGcExtAttributes(ptr noundef %0, ptr noundef %1, ptr noundef %2) #0 {
  %4 = alloca i32, align 4
  %5 = alloca ptr, align 8
  %6 = alloca ptr, align 8
  %7 = alloca ptr, align 8
  %8 = alloca i64, align 8
  store ptr %0, ptr %5, align 8
  store ptr %1, ptr %6, align 8
  store ptr %2, ptr %7, align 8
  %9 = load ptr, ptr %7, align 8
  %10 = icmp eq ptr %9, null
  br i1 %10, label %11, label %13

11:                                               ; preds = %3
  %12 = load ptr, ptr %5, align 8
  call void @JNU_ThrowNullPointerException(ptr noundef %12, ptr noundef @.str)
  store i32 0, ptr %4, align 4
  br label %22

13:                                               ; preds = %3
  %14 = load ptr, ptr @jmm_interface_management_ext, align 8
  %15 = getelementptr inbounds %struct.jmmInterface_1_, ptr %14, i32 0, i32 13
  %16 = load ptr, ptr %15, align 8
  %17 = load ptr, ptr %5, align 8
  %18 = load ptr, ptr %7, align 8
  %19 = call i64 %16(ptr noundef %17, ptr noundef %18, i32 noundef 401)
  store i64 %19, ptr %8, align 8
  %20 = load i64, ptr %8, align 8
  %21 = trunc i64 %20 to i32
  store i32 %21, ptr %4, align 4
  br label %22

22:                                               ; preds = %13, %11
  %23 = load i32, ptr %4, align 4
  ret i32 %23
}