; Function Attrs: nounwind uwtable
define i32 @Java_com_sun_management_internal_GcInfoBuilder_getNumGcExtAttributes(ptr noundef %0, ptr nocapture noundef readnone %1, ptr noundef %2) local_unnamed_addr #0 {
  %4 = icmp eq ptr %2, null
  br i1 %4, label %5, label %6

5:                                                ; preds = %3
  tail call void @JNU_ThrowNullPointerException(ptr noundef %0, ptr noundef nonnull @.str) #4
  br label %12

6:                                                ; preds = %3
  %7 = load ptr, ptr @jmm_interface_management_ext, align 8
  %8 = getelementptr inbounds i8, ptr %7, i64 104
  %9 = load ptr, ptr %8, align 8
  %10 = tail call i64 %9(ptr noundef %0, ptr noundef nonnull %2, i32 noundef 401) #4
  %11 = trunc i64 %10 to i32
  br label %12

12:                                               ; preds = %6, %5
  %.0 = phi i32 [ 0, %5 ], [ %11, %6 ]
  ret i32 %.0
}